ARM GAS  C:\Users\Laptop\AppData\Local\Temp\cc3FzuYi.s 			page 1


   1              		.syntax unified
   2              		.cpu cortex-m3
   3              		.fpu softvfp
   4              		.eabi_attribute 20, 1
   5              		.eabi_attribute 21, 1
   6              		.eabi_attribute 23, 3
   7              		.eabi_attribute 24, 1
   8              		.eabi_attribute 25, 1
   9              		.eabi_attribute 26, 1
  10              		.eabi_attribute 30, 1
  11              		.eabi_attribute 34, 1
  12              		.eabi_attribute 18, 4
  13              		.thumb
  14              		.file	"blue.c"
  15              		.text
  16              	.Ltext0:
  17              		.cfi_sections	.debug_frame
  18              		.section	.text.ReadRxData,"ax",%progbits
  19              		.align	2
  20              		.global	ReadRxData
  21              		.thumb
  22              		.thumb_func
  23              		.type	ReadRxData, %function
  24              	ReadRxData:
  25              	.LFB63:
  26              		.file 1 "blue.c"
   1:blue.c        **** /* ========================================
   2:blue.c        ****  *
   3:blue.c        ****  * Copyright YOUR COMPANY, THE YEAR
   4:blue.c        ****  * All Rights Reserved
   5:blue.c        ****  * UNPUBLISHED, LICENSED SOFTWARE.
   6:blue.c        ****  *
   7:blue.c        ****  * CONFIDENTIAL AND PROPRIETARY INFORMATION
   8:blue.c        ****  * WHICH IS THE PROPERTY OF your company.
   9:blue.c        ****  *
  10:blue.c        ****  * ========================================
  11:blue.c        **** */
  12:blue.c        **** 
  13:blue.c        **** #include "project.h"
  14:blue.c        **** #include "blue.h"
  15:blue.c        **** 
  16:blue.c        **** uint8_t
  17:blue.c        **** ReadRxData (char* Rx_Buffer, uint8_t timeout)
  18:blue.c        **** {
  27              		.loc 1 18 0
  28              		.cfi_startproc
  29              		@ args = 0, pretend = 0, frame = 0
  30              		@ frame_needed = 0, uses_anonymous_args = 0
  31              	.LVL0:
  32 0000 70B5     		push	{r4, r5, r6, lr}
  33              		.cfi_def_cfa_offset 16
  34              		.cfi_offset 4, -16
  35              		.cfi_offset 5, -12
  36              		.cfi_offset 6, -8
  37              		.cfi_offset 14, -4
  38 0002 0546     		mov	r5, r0
  39 0004 0E46     		mov	r6, r1
ARM GAS  C:\Users\Laptop\AppData\Local\Temp\cc3FzuYi.s 			page 2


  40              	.LVL1:
  19:blue.c        ****     uint8_t RxCount=0;
  41              		.loc 1 19 0
  42 0006 0024     		movs	r4, #0
  20:blue.c        ****     while (UART_GetRxBufferSize())
  43              		.loc 1 20 0
  44 0008 14E0     		b	.L2
  45              	.LVL2:
  46              	.L5:
  21:blue.c        ****     	{
  22:blue.c        ****     		Rx_Buffer[RxCount]=UART_GetChar();
  47              		.loc 1 22 0
  48 000a FFF7FEFF 		bl	UART_GetChar
  49              	.LVL3:
  50 000e 2855     		strb	r0, [r5, r4]
  23:blue.c        ****     		RxCount++;
  51              		.loc 1 23 0
  52 0010 0134     		adds	r4, r4, #1
  53              	.LVL4:
  54 0012 E4B2     		uxtb	r4, r4
  55              	.LVL5:
  24:blue.c        ****     		if (!UART_GetRxBufferSize())  
  56              		.loc 1 24 0
  57 0014 FFF7FEFF 		bl	UART_GetRxBufferSize
  58              	.LVL6:
  59 0018 10B9     		cbnz	r0, .L3
  25:blue.c        ****                 CyDelay(timeout);
  60              		.loc 1 25 0
  61 001a 3046     		mov	r0, r6
  62 001c FFF7FEFF 		bl	CyDelay
  63              	.LVL7:
  64              	.L3:
  26:blue.c        ****     		if (RxCount>127)
  65              		.loc 1 26 0
  66 0020 14F0800F 		tst	r4, #128
  67 0024 06D0     		beq	.L2
  27:blue.c        ****     			{
  28:blue.c        ****         			memset (Rx_Buffer,'\0',127);
  68              		.loc 1 28 0
  69 0026 2846     		mov	r0, r5
  70 0028 0021     		movs	r1, #0
  71 002a 7F22     		movs	r2, #127
  72 002c FFF7FEFF 		bl	memset
  73              	.LVL8:
  29:blue.c        ****         			return 1;
  74              		.loc 1 29 0
  75 0030 0123     		movs	r3, #1
  76 0032 06E0     		b	.L4
  77              	.LVL9:
  78              	.L2:
  20:blue.c        ****     	{
  79              		.loc 1 20 0
  80 0034 FFF7FEFF 		bl	UART_GetRxBufferSize
  81              	.LVL10:
  82 0038 0346     		mov	r3, r0
  83 003a 0028     		cmp	r0, #0
  84 003c E5D1     		bne	.L5
ARM GAS  C:\Users\Laptop\AppData\Local\Temp\cc3FzuYi.s 			page 3


  30:blue.c        ****     			}
  31:blue.c        ****     	}
  32:blue.c        ****     	Rx_Buffer[RxCount]=0;
  85              		.loc 1 32 0
  86 003e 0022     		movs	r2, #0
  87 0040 2A55     		strb	r2, [r5, r4]
  88              	.L4:
  33:blue.c        ****     return 0;
  34:blue.c        **** }
  89              		.loc 1 34 0
  90 0042 1846     		mov	r0, r3
  91 0044 70BD     		pop	{r4, r5, r6, pc}
  92              		.cfi_endproc
  93              	.LFE63:
  94              		.size	ReadRxData, .-ReadRxData
  95 0046 00BF     		.text
  96              	.Letext0:
  97              		.file 2 "c:\\program files (x86)\\cypress\\psoc creator\\4.0\\psoc creator\\import\\gnu\\arm\\4.9.
  98              		.file 3 "c:\\program files (x86)\\cypress\\psoc creator\\4.0\\psoc creator\\import\\gnu\\arm\\4.9.
  99              		.file 4 "Generated_Source\\PSoC5/cytypes.h"
 100              		.file 5 "Generated_Source\\PSoC5/UART.h"
 101              		.file 6 "Generated_Source\\PSoC5/core_cm3.h"
 102              		.file 7 "Generated_Source\\PSoC5/CyLib.h"