ARM GAS  C:\Users\Laptop\AppData\Local\Temp\ccZEGHIY.s 			page 1


   1              		.syntax unified
   2              		.cpu cortex-m3
   3              		.fpu softvfp
   4              		.eabi_attribute 20, 1
   5              		.eabi_attribute 21, 1
   6              		.eabi_attribute 23, 3
   7              		.eabi_attribute 24, 1
   8              		.eabi_attribute 25, 1
   9              		.eabi_attribute 26, 1
  10              		.eabi_attribute 30, 1
  11              		.eabi_attribute 34, 1
  12              		.eabi_attribute 18, 4
  13              		.thumb
  14              		.file	"main.c"
  15              		.text
  16              	.Ltext0:
  17              		.cfi_sections	.debug_frame
  18              		.section	.text.blueRX_ISR,"ax",%progbits
  19              		.align	2
  20              		.global	blueRX_ISR
  21              		.thumb
  22              		.thumb_func
  23              		.type	blueRX_ISR, %function
  24              	blueRX_ISR:
  25              	.LFB64:
  26              		.file 1 "main.c"
   1:main.c        **** /* ========================================
   2:main.c        ****  *
   3:main.c        ****  * Copyright YOUR COMPANY, THE YEAR
   4:main.c        ****  * All Rights Reserved
   5:main.c        ****  * UNPUBLISHED, LICENSED SOFTWARE.
   6:main.c        ****  *
   7:main.c        ****  * CONFIDENTIAL AND PROPRIETARY INFORMATION
   8:main.c        ****  * WHICH IS THE PROPERTY OF your company.
   9:main.c        ****  *
  10:main.c        ****  * ========================================
  11:main.c        **** */
  12:main.c        **** #include "project.h"
  13:main.c        **** #include <stdint.h>
  14:main.c        **** #include <stdio.h>
  15:main.c        **** #include "I2C.h"
  16:main.c        **** #include "blue.h"
  17:main.c        **** #include "MPU6050.h"
  18:main.c        **** 
  19:main.c        **** /* Various definitions defined structures. */
  20:main.c        **** /* Priority ranges from
  21:main.c        ****     0-7 on PSOC 5LP
  22:main.c        ****     0-3 on PSOC 4 */
  23:main.c        **** #define DEFAULT_PRIORITY     (5u)
  24:main.c        **** #define LOW_PRIORITY         (7u)
  25:main.c        **** #define MEDIUM_PRIORITY      (3u)
  26:main.c        **** #define HIGH_PRIORITY        (1u)
  27:main.c        **** 
  28:main.c        **** #define I2C_SLAVE_ADDRESS    0x68
  29:main.c        **** 
  30:main.c        **** #define MPU6050_PAUSE        500
  31:main.c        **** #define BLUE_PAUSE           600
ARM GAS  C:\Users\Laptop\AppData\Local\Temp\ccZEGHIY.s 			page 2


  32:main.c        **** #define SLEEP_PAUSE          250
  33:main.c        **** #define SERVO_PAUSE          250
  34:main.c        **** #define MOTOR_PAUSE          500
  35:main.c        **** 
  36:main.c        **** #define x_motion_ISR         (1u)
  37:main.c        **** #define y_motion_ISR         (2u)
  38:main.c        **** #define z_motion_ISR         (3u)
  39:main.c        **** 
  40:main.c        **** #define PIN_OFF              (0u)
  41:main.c        **** #define PIN_ON               (1u)
  42:main.c        **** 
  43:main.c        **** /* Function prototypes. */
  44:main.c        **** CY_ISR_PROTO (blueRX_ISR);
  45:main.c        **** CY_ISR_PROTO (accelUP_ISR);
  46:main.c        **** CY_ISR_PROTO (motion_handler);
  47:main.c        **** CY_ISR_PROTO (rpm_handler);
  48:main.c        **** 
  49:main.c        **** /* Global Variables. */
  50:main.c        **** uint8 errorStatus = (0u);
  51:main.c        **** 
  52:main.c        **** int16_t ax, ay, az;
  53:main.c        **** int16_t gx, gy, gz;
  54:main.c        **** int16_t dx, dy, dz;
  55:main.c        **** 
  56:main.c        **** uint16_t PWM_PERIOD = 4800;
  57:main.c        **** uint16_t PWM_ZERO = 0;
  58:main.c        **** 
  59:main.c        **** uint16_t m_pwmx, m_pwmy, m_pwmz;
  60:main.c        **** uint16_t MOTOR_FULL_REVERSE = 125;    
  61:main.c        **** uint16_t MOTOR_STOP = 290;
  62:main.c        **** uint16_t MOTOR_FULL_FORWARD = 415;
  63:main.c        **** 
  64:main.c        **** uint16_t s_pwmx, s_pwmy, s_pwmz;
  65:main.c        **** 
  66:main.c        **** uint16_t SERVO_N90 = 3870;
  67:main.c        **** uint16_t SERVO_ZERO = 4320;
  68:main.c        **** uint16_t SERVO_P90 = 4770;
  69:main.c        **** 
  70:main.c        **** bool jx, jy, jz;
  71:main.c        **** uint16_t rpmx, rpmy, rpmz;
  72:main.c        **** 
  73:main.c        **** uint8_t blueBuff_timeout = 50;
  74:main.c        **** const size_t blueBuff_len = 64;
  75:main.c        **** uint8_t baud = 2;
  76:main.c        **** 
  77:main.c        **** /* ax ay az gx gy gz rpmx rpmy rpmz */
  78:main.c        **** const size_t updateBuff_len = 18;
  79:main.c        **** const char* updateBlue_STR = "%d %d %d %d %d %d %d %d %d";
  80:main.c        **** 
  81:main.c        **** /*** MAIN FUNCTION ***/
  82:main.c        **** int main(void)
  83:main.c        **** {   
  84:main.c        ****     /* Enable the Global interrupt. */
  85:main.c        ****     CyGlobalIntEnable;
  86:main.c        ****     
  87:main.c        ****     /* Start I2C Communication Line. */
  88:main.c        ****     I2CM_Start ();
ARM GAS  C:\Users\Laptop\AppData\Local\Temp\ccZEGHIY.s 			page 3


  89:main.c        ****     
  90:main.c        ****     /* Start UART Communication. */
  91:main.c        ****     UART_Start ();
  92:main.c        **** 	while (config_blue (baud, BLUE_PAUSE) != baud)
  93:main.c        ****     {
  94:main.c        ****         CyDelay (BLUE_PAUSE);
  95:main.c        ****     }
  96:main.c        ****     
  97:main.c        ****     /* Setup & Connect to MPU6050. */
  98:main.c        ****     //MPU6050_init ();
  99:main.c        **** 	//MPU6050_initialize ();
 100:main.c        ****     //while (!MPU6050_testConnection ())
 101:main.c        ****     //{
 102:main.c        ****     //    CyDelay (MPU6050_PAUSE);
 103:main.c        ****     //}
 104:main.c        ****     
 105:main.c        ****     /* Set desired state to current state. */
 106:main.c        ****     //MPU6050_getMotion6(&ax, &ay, &az, &gx, &gy, &gz);
 107:main.c        ****     dx = gx;
 108:main.c        ****     dy = gy;
 109:main.c        ****     dz = gz;
 110:main.c        ****    
 111:main.c        ****     /* Setup UART (hardware) interrupt. */
 112:main.c        ****     blueRX_ISR_StartEx (blueRX_ISR);
 113:main.c        ****     blueRX_ISR_SetPriority (LOW_PRIORITY);
 114:main.c        ****     
 115:main.c        ****     /* Setup accel (timer) interrupt. */
 116:main.c        ****     accelUP_ISR_StartEx (accelUP_ISR);
 117:main.c        ****     accelUP_ISR_SetPriority (HIGH_PRIORITY);
 118:main.c        ****     
 119:main.c        ****     /* Setup x motion (software) interrupt. */
 120:main.c        ****     CyIntSetVector (x_motion_ISR, motion_handler);
 121:main.c        ****     CyIntSetPriority (x_motion_ISR, MEDIUM_PRIORITY);
 122:main.c        ****     CyIntEnable (x_motion_ISR);
 123:main.c        ****     
 124:main.c        ****     /* Setup y motion (software) interrupt. */
 125:main.c        ****     CyIntSetVector (y_motion_ISR, motion_handler);
 126:main.c        ****     CyIntSetPriority (y_motion_ISR, MEDIUM_PRIORITY);
 127:main.c        ****     CyIntEnable (y_motion_ISR);
 128:main.c        ****     
 129:main.c        ****     /* Setup z motion (software) interrupt. */
 130:main.c        ****     CyIntSetVector (z_motion_ISR, motion_handler);
 131:main.c        ****     CyIntSetPriority (z_motion_ISR, MEDIUM_PRIORITY);
 132:main.c        ****     CyIntEnable (z_motion_ISR);
 133:main.c        ****     
 134:main.c        ****     /* Setup flywheel PWM, clocks, and calibration. */
 135:main.c        ****     flywheel_clock_Enable ();
 136:main.c        ****     fw1_PWM_Start ();
 137:main.c        ****     fw2_PWM_Start ();
 138:main.c        ****     fw3_PWM_Start ();
 139:main.c        ****     CyDelay (MOTOR_PAUSE);
 140:main.c        ****     
 141:main.c        ****     fw1_PWM_WritePeriod (PWM_PERIOD);
 142:main.c        ****     fw3_PWM_WritePeriod (PWM_PERIOD);
 143:main.c        ****     fw3_PWM_WritePeriod (PWM_PERIOD);
 144:main.c        ****     CyDelay (MOTOR_PAUSE);
 145:main.c        ****     
ARM GAS  C:\Users\Laptop\AppData\Local\Temp\ccZEGHIY.s 			page 4


 146:main.c        ****     /* Setup Motor PWM Compare Values (Duty Cycle). */
 147:main.c        ****     fw1_PWM_WriteCompare1 (PWM_ZERO);
 148:main.c        ****     fw2_PWM_WriteCompare1 (PWM_ZERO);
 149:main.c        ****     fw3_PWM_WriteCompare1 (PWM_ZERO);
 150:main.c        ****     CyDelay (MOTOR_PAUSE);
 151:main.c        ****     fw1_PWM_WriteCompare1 (MOTOR_STOP);
 152:main.c        ****     fw2_PWM_WriteCompare1 (MOTOR_STOP);
 153:main.c        ****     fw3_PWM_WriteCompare1 (MOTOR_STOP);
 154:main.c        ****     CyDelay (MOTOR_PAUSE);
 155:main.c        ****     
 156:main.c        ****     /* Setup Servo PWM Compare Values (Duty Cycle). */
 157:main.c        ****     fw1_PWM_WriteCompare2 (PWM_ZERO);
 158:main.c        ****     fw2_PWM_WriteCompare2 (PWM_ZERO);
 159:main.c        ****     fw3_PWM_WriteCompare2 (PWM_ZERO);
 160:main.c        ****     CyDelay (SERVO_PAUSE);
 161:main.c        ****     fw1_PWM_WriteCompare2 (SERVO_N90);
 162:main.c        ****     fw2_PWM_WriteCompare2 (SERVO_ZERO);
 163:main.c        ****     fw3_PWM_WriteCompare2 (SERVO_N90);
 164:main.c        ****     CyDelay (SERVO_PAUSE);
 165:main.c        ****     
 166:main.c        ****     /* Setup flywheel RPM ISRs. */
 167:main.c        ****     //fw1_RPM_ISR_StartEx (rpm_handler);
 168:main.c        ****     //fw2_RPM_ISR_StartEx (rpm_handler);
 169:main.c        ****     //fw3_RPM_ISR_StartEx (rpm_handler);
 170:main.c        ****     //fw1_RPM_ISR_SetPriority (LOW_PRIORITY);
 171:main.c        ****     //fw2_RPM_ISR_SetPriority (LOW_PRIORITY);
 172:main.c        ****     //fw3_RPM_ISR_SetPriority (LOW_PRIORITY);
 173:main.c        ****     
 174:main.c        ****     /* Turn on flywheel LEDS. */
 175:main.c        ****     //RPM_LED_PIN_Write (PIN_ON);
 176:main.c        ****     
 177:main.c        ****     /* Start accel timer. */
 178:main.c        ****     //accel_timer_Start ();
 179:main.c        **** 
 180:main.c        ****     char updateBuff[updateBuff_len];
 181:main.c        ****     uint16_t i = MOTOR_STOP;
 182:main.c        ****     for(;;)
 183:main.c        ****     {
 184:main.c        ****         //fw2_PWM_WriteCompare1 (i);
 185:main.c        ****         //i -= 10;
 186:main.c        ****         fw2_PWM_WriteCompare1 (i);
 187:main.c        ****         
 188:main.c        ****         i -= 10;
 189:main.c        ****         
 190:main.c        ****         if (i == (MOTOR_STOP - 70))
 191:main.c        ****         {
 192:main.c        ****             fw2_PWM_WriteCompare1 (MOTOR_STOP);
 193:main.c        ****             fw2_PWM_WriteCompare2 (SERVO_N90);
 194:main.c        ****         }
 195:main.c        ****         //snprintf (updateBuff, updateBuff_len, updateBlue_STR, 
 196:main.c        ****         //    ax, ay, az, gx, gy, gz, rpmx, rpmy, rpmz);
 197:main.c        ****         //WriteTxData (updateBuff, updateBuff_len);
 198:main.c        ****     }
 199:main.c        **** }
 200:main.c        **** 
 201:main.c        **** /*** FUNCTION SECTION ***/
 202:main.c        **** 
ARM GAS  C:\Users\Laptop\AppData\Local\Temp\ccZEGHIY.s 			page 5


 203:main.c        **** 
 204:main.c        **** /*** ISR SECTION ***/
 205:main.c        **** 
 206:main.c        **** CY_ISR (blueRX_ISR)
 207:main.c        **** {    
  27              		.loc 1 207 0
  28              		.cfi_startproc
  29              		@ args = 0, pretend = 0, frame = 64
  30              		@ frame_needed = 0, uses_anonymous_args = 0
  31 0000 00B5     		push	{lr}
  32              		.cfi_def_cfa_offset 4
  33              		.cfi_offset 14, -4
  34 0002 91B0     		sub	sp, sp, #68
  35              		.cfi_def_cfa_offset 72
  36              	.LVL0:
 208:main.c        ****     /* Read RX Data. */
 209:main.c        ****     char blueBuff[blueBuff_len];
 210:main.c        ****     ReadRxData (blueBuff, blueBuff_len, blueBuff_timeout);
  37              		.loc 1 210 0
  38 0004 6846     		mov	r0, sp
  39 0006 4021     		movs	r1, #64
  40 0008 064B     		ldr	r3, .L3
  41 000a 1A78     		ldrb	r2, [r3]	@ zero_extendqisi2
  42 000c FFF7FEFF 		bl	ReadRxData
  43              	.LVL1:
 211:main.c        ****     
 212:main.c        ****     /* Act on RX Data. */
 213:main.c        ****     
 214:main.c        ****     
 215:main.c        ****     /* Respond to RX Data. */
 216:main.c        ****     WriteTxData (blueBuff, blueBuff_len);
  44              		.loc 1 216 0
  45 0010 6846     		mov	r0, sp
  46 0012 4021     		movs	r1, #64
  47 0014 FFF7FEFF 		bl	WriteTxData
  48              	.LVL2:
 217:main.c        ****     
 218:main.c        ****     /* Clear blueRX ISR for next interrupt. */
 219:main.c        ****     blueRX_ISR_ClearPending ();
  49              		.loc 1 219 0
  50 0018 FFF7FEFF 		bl	blueRX_ISR_ClearPending
  51              	.LVL3:
 220:main.c        **** }
  52              		.loc 1 220 0
  53 001c 11B0     		add	sp, sp, #68
  54              		.cfi_def_cfa_offset 4
  55              	.LVL4:
  56              		@ sp needed
  57 001e 5DF804FB 		ldr	pc, [sp], #4
  58              	.LVL5:
  59              	.L4:
  60 0022 00BF     		.align	2
  61              	.L3:
  62 0024 00000000 		.word	.LANCHOR0
  63              		.cfi_endproc
  64              	.LFE64:
  65              		.size	blueRX_ISR, .-blueRX_ISR
ARM GAS  C:\Users\Laptop\AppData\Local\Temp\ccZEGHIY.s 			page 6


  66              		.section	.text.accelUP_ISR,"ax",%progbits
  67              		.align	2
  68              		.global	accelUP_ISR
  69              		.thumb
  70              		.thumb_func
  71              		.type	accelUP_ISR, %function
  72              	accelUP_ISR:
  73              	.LFB65:
 221:main.c        **** 
 222:main.c        **** CY_ISR (accelUP_ISR)
 223:main.c        **** {    
  74              		.loc 1 223 0
  75              		.cfi_startproc
  76              		@ args = 0, pretend = 0, frame = 0
  77              		@ frame_needed = 0, uses_anonymous_args = 0
  78 0000 00B5     		push	{lr}
  79              		.cfi_def_cfa_offset 4
  80              		.cfi_offset 14, -4
  81 0002 83B0     		sub	sp, sp, #12
  82              		.cfi_def_cfa_offset 16
 224:main.c        ****     /* Clear sticky timer TC by reading register. */
 225:main.c        ****     accel_timer_STATUS;
  83              		.loc 1 225 0
  84 0004 0B4B     		ldr	r3, .L7
  85 0006 1B78     		ldrb	r3, [r3]	@ zero_extendqisi2
 226:main.c        ****     
 227:main.c        ****     /* Clear accel ISR. */
 228:main.c        ****     accelUP_ISR_ClearPending ();
  86              		.loc 1 228 0
  87 0008 FFF7FEFF 		bl	accelUP_ISR_ClearPending
  88              	.LVL6:
 229:main.c        ****     
 230:main.c        ****     /* Update accel & gyro values. */
 231:main.c        ****     MPU6050_getMotion6(&ax, &ay, &az, &gx, &gy, &gz);
  89              		.loc 1 231 0
  90 000c 0A4B     		ldr	r3, .L7+4
  91 000e 0093     		str	r3, [sp]
  92 0010 0A4B     		ldr	r3, .L7+8
  93 0012 0193     		str	r3, [sp, #4]
  94 0014 0A48     		ldr	r0, .L7+12
  95 0016 0B49     		ldr	r1, .L7+16
  96 0018 0B4A     		ldr	r2, .L7+20
  97 001a 0C4B     		ldr	r3, .L7+24
  98 001c FFF7FEFF 		bl	MPU6050_getMotion6
  99              	.LVL7:
 232:main.c        ****     
 233:main.c        ****     /* Set interrupts to handle x, y, and z motion. */
 234:main.c        ****     CyIntSetPending (x_motion_ISR);
 100              		.loc 1 234 0
 101 0020 0B4B     		ldr	r3, .L7+28
 102 0022 0222     		movs	r2, #2
 103 0024 1A60     		str	r2, [r3]
 235:main.c        ****     CyIntSetPending (y_motion_ISR);
 104              		.loc 1 235 0
 105 0026 0422     		movs	r2, #4
 106 0028 1A60     		str	r2, [r3]
 236:main.c        ****     CyIntSetPending (z_motion_ISR);
ARM GAS  C:\Users\Laptop\AppData\Local\Temp\ccZEGHIY.s 			page 7


 107              		.loc 1 236 0
 108 002a 0822     		movs	r2, #8
 109 002c 1A60     		str	r2, [r3]
 237:main.c        **** }
 110              		.loc 1 237 0
 111 002e 03B0     		add	sp, sp, #12
 112              		.cfi_def_cfa_offset 4
 113              		@ sp needed
 114 0030 5DF804FB 		ldr	pc, [sp], #4
 115              	.L8:
 116              		.align	2
 117              	.L7:
 118 0034 65650040 		.word	1073767781
 119 0038 00000000 		.word	gy
 120 003c 00000000 		.word	gz
 121 0040 00000000 		.word	ax
 122 0044 00000000 		.word	ay
 123 0048 00000000 		.word	az
 124 004c 00000000 		.word	gx
 125 0050 00E200E0 		.word	-536813056
 126              		.cfi_endproc
 127              	.LFE65:
 128              		.size	accelUP_ISR, .-accelUP_ISR
 129              		.section	.text.motion_handler,"ax",%progbits
 130              		.align	2
 131              		.global	motion_handler
 132              		.thumb
 133              		.thumb_func
 134              		.type	motion_handler, %function
 135              	motion_handler:
 136              	.LFB66:
 238:main.c        **** 
 239:main.c        **** CY_ISR (motion_handler)
 240:main.c        **** {
 137              		.loc 1 240 0
 138              		.cfi_startproc
 139              		@ args = 0, pretend = 0, frame = 0
 140              		@ frame_needed = 0, uses_anonymous_args = 0
 141 0000 08B5     		push	{r3, lr}
 142              		.cfi_def_cfa_offset 8
 143              		.cfi_offset 3, -8
 144              		.cfi_offset 14, -4
 241:main.c        ****     /* Handle motion cases. */
 242:main.c        ****     if (CyIntGetState (x_motion_ISR))
 145              		.loc 1 242 0
 146 0002 0120     		movs	r0, #1
 147 0004 FFF7FEFF 		bl	CyIntGetState
 148              	.LVL8:
 149 0008 18B1     		cbz	r0, .L10
 243:main.c        ****     {
 244:main.c        ****         /* React to x motion. */
 245:main.c        ****         
 246:main.c        ****         /* Clear x interrupt. */
 247:main.c        ****         CyIntClearPending (x_motion_ISR);
 150              		.loc 1 247 0
 151 000a 0222     		movs	r2, #2
 152 000c 094B     		ldr	r3, .L14
ARM GAS  C:\Users\Laptop\AppData\Local\Temp\ccZEGHIY.s 			page 8


 153 000e 1A60     		str	r2, [r3]
 154 0010 08BD     		pop	{r3, pc}
 155              	.L10:
 248:main.c        ****     } else if (CyIntGetState (y_motion_ISR))
 156              		.loc 1 248 0
 157 0012 0220     		movs	r0, #2
 158 0014 FFF7FEFF 		bl	CyIntGetState
 159              	.LVL9:
 160 0018 18B1     		cbz	r0, .L12
 249:main.c        ****     {
 250:main.c        ****         /* React to y motion. */
 251:main.c        ****         
 252:main.c        ****         /* Clear y interrupt. */
 253:main.c        ****         CyIntClearPending (y_motion_ISR);
 161              		.loc 1 253 0
 162 001a 0422     		movs	r2, #4
 163 001c 054B     		ldr	r3, .L14
 164 001e 1A60     		str	r2, [r3]
 165 0020 08BD     		pop	{r3, pc}
 166              	.L12:
 254:main.c        ****     } else if (CyIntGetState (z_motion_ISR))
 167              		.loc 1 254 0
 168 0022 0320     		movs	r0, #3
 169 0024 FFF7FEFF 		bl	CyIntGetState
 170              	.LVL10:
 171 0028 10B1     		cbz	r0, .L9
 255:main.c        ****     {
 256:main.c        ****         /* React to z motion. */
 257:main.c        ****         
 258:main.c        ****         /* Clear z interrupt. */
 259:main.c        ****         CyIntClearPending (z_motion_ISR);
 172              		.loc 1 259 0
 173 002a 0822     		movs	r2, #8
 174 002c 014B     		ldr	r3, .L14
 175 002e 1A60     		str	r2, [r3]
 176              	.L9:
 177 0030 08BD     		pop	{r3, pc}
 178              	.L15:
 179 0032 00BF     		.align	2
 180              	.L14:
 181 0034 80E200E0 		.word	-536812928
 182              		.cfi_endproc
 183              	.LFE66:
 184              		.size	motion_handler, .-motion_handler
 185              		.section	.text.main,"ax",%progbits
 186              		.align	2
 187              		.global	main
 188              		.thumb
 189              		.thumb_func
 190              		.type	main, %function
 191              	main:
 192              	.LFB63:
  83:main.c        ****     /* Enable the Global interrupt. */
 193              		.loc 1 83 0
 194              		.cfi_startproc
 195              		@ args = 0, pretend = 0, frame = 0
 196              		@ frame_needed = 0, uses_anonymous_args = 0
ARM GAS  C:\Users\Laptop\AppData\Local\Temp\ccZEGHIY.s 			page 9


 197 0000 70B5     		push	{r4, r5, r6, lr}
 198              		.cfi_def_cfa_offset 16
 199              		.cfi_offset 4, -16
 200              		.cfi_offset 5, -12
 201              		.cfi_offset 6, -8
 202              		.cfi_offset 14, -4
  85:main.c        ****     
 203              		.loc 1 85 0
 204              	@ 85 "main.c" 1
 205 0002 62B6     		CPSIE   i
 206              	@ 0 "" 2
  88:main.c        ****     
 207              		.loc 1 88 0
 208              		.thumb
 209 0004 FFF7FEFF 		bl	I2CM_Start
 210              	.LVL11:
  91:main.c        **** 	while (config_blue (baud, BLUE_PAUSE) != baud)
 211              		.loc 1 91 0
 212 0008 FFF7FEFF 		bl	UART_Start
 213              	.LVL12:
  92:main.c        ****     {
 214              		.loc 1 92 0
 215 000c 03E0     		b	.L17
 216              	.L18:
  94:main.c        ****     }
 217              		.loc 1 94 0
 218 000e 4FF41670 		mov	r0, #600
 219 0012 FFF7FEFF 		bl	CyDelay
 220              	.LVL13:
 221              	.L17:
  92:main.c        ****     {
 222              		.loc 1 92 0
 223 0016 504C     		ldr	r4, .L22
 224 0018 6078     		ldrb	r0, [r4, #1]	@ zero_extendqisi2
 225 001a 4FF41671 		mov	r1, #600
 226 001e FFF7FEFF 		bl	config_blue
 227              	.LVL14:
 228 0022 6378     		ldrb	r3, [r4, #1]	@ zero_extendqisi2
 229 0024 9842     		cmp	r0, r3
 230 0026 F2D1     		bne	.L18
 107:main.c        ****     dy = gy;
 231              		.loc 1 107 0
 232 0028 4C4B     		ldr	r3, .L22+4
 233 002a 1A88     		ldrh	r2, [r3]
 234 002c 4C4B     		ldr	r3, .L22+8
 235 002e 1A80     		strh	r2, [r3]	@ movhi
 108:main.c        ****     dz = gz;
 236              		.loc 1 108 0
 237 0030 4C4B     		ldr	r3, .L22+12
 238 0032 1A88     		ldrh	r2, [r3]
 239 0034 4C4B     		ldr	r3, .L22+16
 240 0036 1A80     		strh	r2, [r3]	@ movhi
 109:main.c        ****    
 241              		.loc 1 109 0
 242 0038 4C4B     		ldr	r3, .L22+20
 243 003a 1A88     		ldrh	r2, [r3]
 244 003c 4C4B     		ldr	r3, .L22+24
ARM GAS  C:\Users\Laptop\AppData\Local\Temp\ccZEGHIY.s 			page 10


 245 003e 1A80     		strh	r2, [r3]	@ movhi
 112:main.c        ****     blueRX_ISR_SetPriority (LOW_PRIORITY);
 246              		.loc 1 112 0
 247 0040 4C48     		ldr	r0, .L22+28
 248 0042 FFF7FEFF 		bl	blueRX_ISR_StartEx
 249              	.LVL15:
 113:main.c        ****     
 250              		.loc 1 113 0
 251 0046 0720     		movs	r0, #7
 252 0048 FFF7FEFF 		bl	blueRX_ISR_SetPriority
 253              	.LVL16:
 116:main.c        ****     accelUP_ISR_SetPriority (HIGH_PRIORITY);
 254              		.loc 1 116 0
 255 004c 4A48     		ldr	r0, .L22+32
 256 004e FFF7FEFF 		bl	accelUP_ISR_StartEx
 257              	.LVL17:
 117:main.c        ****     
 258              		.loc 1 117 0
 259 0052 0120     		movs	r0, #1
 260 0054 FFF7FEFF 		bl	accelUP_ISR_SetPriority
 261              	.LVL18:
 120:main.c        ****     CyIntSetPriority (x_motion_ISR, MEDIUM_PRIORITY);
 262              		.loc 1 120 0
 263 0058 484D     		ldr	r5, .L22+36
 264 005a 0120     		movs	r0, #1
 265 005c 2946     		mov	r1, r5
 266 005e FFF7FEFF 		bl	CyIntSetVector
 267              	.LVL19:
 121:main.c        ****     CyIntEnable (x_motion_ISR);
 268              		.loc 1 121 0
 269 0062 0120     		movs	r0, #1
 270 0064 0321     		movs	r1, #3
 271 0066 FFF7FEFF 		bl	CyIntSetPriority
 272              	.LVL20:
 122:main.c        ****     
 273              		.loc 1 122 0
 274 006a 454C     		ldr	r4, .L22+40
 275 006c 0226     		movs	r6, #2
 276 006e 2660     		str	r6, [r4]
 125:main.c        ****     CyIntSetPriority (y_motion_ISR, MEDIUM_PRIORITY);
 277              		.loc 1 125 0
 278 0070 3046     		mov	r0, r6
 279 0072 2946     		mov	r1, r5
 280 0074 FFF7FEFF 		bl	CyIntSetVector
 281              	.LVL21:
 126:main.c        ****     CyIntEnable (y_motion_ISR);
 282              		.loc 1 126 0
 283 0078 3046     		mov	r0, r6
 284 007a 0321     		movs	r1, #3
 285 007c FFF7FEFF 		bl	CyIntSetPriority
 286              	.LVL22:
 127:main.c        ****     
 287              		.loc 1 127 0
 288 0080 0423     		movs	r3, #4
 289 0082 2360     		str	r3, [r4]
 130:main.c        ****     CyIntSetPriority (z_motion_ISR, MEDIUM_PRIORITY);
 290              		.loc 1 130 0
ARM GAS  C:\Users\Laptop\AppData\Local\Temp\ccZEGHIY.s 			page 11


 291 0084 0320     		movs	r0, #3
 292 0086 2946     		mov	r1, r5
 293 0088 FFF7FEFF 		bl	CyIntSetVector
 294              	.LVL23:
 131:main.c        ****     CyIntEnable (z_motion_ISR);
 295              		.loc 1 131 0
 296 008c 0320     		movs	r0, #3
 297 008e 0146     		mov	r1, r0
 298 0090 FFF7FEFF 		bl	CyIntSetPriority
 299              	.LVL24:
 132:main.c        ****     
 300              		.loc 1 132 0
 301 0094 0823     		movs	r3, #8
 302 0096 2360     		str	r3, [r4]
 135:main.c        ****     fw1_PWM_Start ();
 303              		.loc 1 135 0
 304 0098 FFF7FEFF 		bl	flywheel_clock_Start
 305              	.LVL25:
 136:main.c        ****     fw2_PWM_Start ();
 306              		.loc 1 136 0
 307 009c FFF7FEFF 		bl	fw1_PWM_Start
 308              	.LVL26:
 137:main.c        ****     fw3_PWM_Start ();
 309              		.loc 1 137 0
 310 00a0 FFF7FEFF 		bl	fw2_PWM_Start
 311              	.LVL27:
 138:main.c        ****     CyDelay (MOTOR_PAUSE);
 312              		.loc 1 138 0
 313 00a4 FFF7FEFF 		bl	fw3_PWM_Start
 314              	.LVL28:
 139:main.c        ****     
 315              		.loc 1 139 0
 316 00a8 4FF4FA70 		mov	r0, #500
 317 00ac FFF7FEFF 		bl	CyDelay
 318              	.LVL29:
 141:main.c        ****     fw3_PWM_WritePeriod (PWM_PERIOD);
 319              		.loc 1 141 0
 320 00b0 294C     		ldr	r4, .L22
 321 00b2 6088     		ldrh	r0, [r4, #2]
 322 00b4 FFF7FEFF 		bl	fw1_PWM_WritePeriod
 323              	.LVL30:
 142:main.c        ****     fw3_PWM_WritePeriod (PWM_PERIOD);
 324              		.loc 1 142 0
 325 00b8 6088     		ldrh	r0, [r4, #2]
 326 00ba FFF7FEFF 		bl	fw3_PWM_WritePeriod
 327              	.LVL31:
 143:main.c        ****     CyDelay (MOTOR_PAUSE);
 328              		.loc 1 143 0
 329 00be 6088     		ldrh	r0, [r4, #2]
 330 00c0 FFF7FEFF 		bl	fw3_PWM_WritePeriod
 331              	.LVL32:
 144:main.c        ****     
 332              		.loc 1 144 0
 333 00c4 4FF4FA70 		mov	r0, #500
 334 00c8 FFF7FEFF 		bl	CyDelay
 335              	.LVL33:
 147:main.c        ****     fw2_PWM_WriteCompare1 (PWM_ZERO);
ARM GAS  C:\Users\Laptop\AppData\Local\Temp\ccZEGHIY.s 			page 12


 336              		.loc 1 147 0
 337 00cc 2D4D     		ldr	r5, .L22+44
 338 00ce 2888     		ldrh	r0, [r5]
 339 00d0 FFF7FEFF 		bl	fw1_PWM_WriteCompare1
 340              	.LVL34:
 148:main.c        ****     fw3_PWM_WriteCompare1 (PWM_ZERO);
 341              		.loc 1 148 0
 342 00d4 2888     		ldrh	r0, [r5]
 343 00d6 FFF7FEFF 		bl	fw2_PWM_WriteCompare1
 344              	.LVL35:
 149:main.c        ****     CyDelay (MOTOR_PAUSE);
 345              		.loc 1 149 0
 346 00da 2888     		ldrh	r0, [r5]
 347 00dc FFF7FEFF 		bl	fw3_PWM_WriteCompare1
 348              	.LVL36:
 150:main.c        ****     fw1_PWM_WriteCompare1 (MOTOR_STOP);
 349              		.loc 1 150 0
 350 00e0 4FF4FA70 		mov	r0, #500
 351 00e4 FFF7FEFF 		bl	CyDelay
 352              	.LVL37:
 151:main.c        ****     fw2_PWM_WriteCompare1 (MOTOR_STOP);
 353              		.loc 1 151 0
 354 00e8 A088     		ldrh	r0, [r4, #4]
 355 00ea FFF7FEFF 		bl	fw1_PWM_WriteCompare1
 356              	.LVL38:
 152:main.c        ****     fw3_PWM_WriteCompare1 (MOTOR_STOP);
 357              		.loc 1 152 0
 358 00ee A088     		ldrh	r0, [r4, #4]
 359 00f0 FFF7FEFF 		bl	fw2_PWM_WriteCompare1
 360              	.LVL39:
 153:main.c        ****     CyDelay (MOTOR_PAUSE);
 361              		.loc 1 153 0
 362 00f4 A088     		ldrh	r0, [r4, #4]
 363 00f6 FFF7FEFF 		bl	fw3_PWM_WriteCompare1
 364              	.LVL40:
 154:main.c        ****     
 365              		.loc 1 154 0
 366 00fa 4FF4FA70 		mov	r0, #500
 367 00fe FFF7FEFF 		bl	CyDelay
 368              	.LVL41:
 157:main.c        ****     fw2_PWM_WriteCompare2 (PWM_ZERO);
 369              		.loc 1 157 0
 370 0102 2888     		ldrh	r0, [r5]
 371 0104 FFF7FEFF 		bl	fw1_PWM_WriteCompare2
 372              	.LVL42:
 158:main.c        ****     fw3_PWM_WriteCompare2 (PWM_ZERO);
 373              		.loc 1 158 0
 374 0108 2888     		ldrh	r0, [r5]
 375 010a FFF7FEFF 		bl	fw2_PWM_WriteCompare2
 376              	.LVL43:
 159:main.c        ****     CyDelay (SERVO_PAUSE);
 377              		.loc 1 159 0
 378 010e 2888     		ldrh	r0, [r5]
 379 0110 FFF7FEFF 		bl	fw3_PWM_WriteCompare2
 380              	.LVL44:
 160:main.c        ****     fw1_PWM_WriteCompare2 (SERVO_N90);
 381              		.loc 1 160 0
ARM GAS  C:\Users\Laptop\AppData\Local\Temp\ccZEGHIY.s 			page 13


 382 0114 FA20     		movs	r0, #250
 383 0116 FFF7FEFF 		bl	CyDelay
 384              	.LVL45:
 161:main.c        ****     fw2_PWM_WriteCompare2 (SERVO_ZERO);
 385              		.loc 1 161 0
 386 011a E088     		ldrh	r0, [r4, #6]
 387 011c FFF7FEFF 		bl	fw1_PWM_WriteCompare2
 388              	.LVL46:
 162:main.c        ****     fw3_PWM_WriteCompare2 (SERVO_N90);
 389              		.loc 1 162 0
 390 0120 2089     		ldrh	r0, [r4, #8]
 391 0122 FFF7FEFF 		bl	fw2_PWM_WriteCompare2
 392              	.LVL47:
 163:main.c        ****     CyDelay (SERVO_PAUSE);
 393              		.loc 1 163 0
 394 0126 E088     		ldrh	r0, [r4, #6]
 395 0128 FFF7FEFF 		bl	fw3_PWM_WriteCompare2
 396              	.LVL48:
 164:main.c        ****     
 397              		.loc 1 164 0
 398 012c FA20     		movs	r0, #250
 399 012e FFF7FEFF 		bl	CyDelay
 400              	.LVL49:
 181:main.c        ****     for(;;)
 401              		.loc 1 181 0
 402 0132 A488     		ldrh	r4, [r4, #4]
 403              	.LVL50:
 404              	.L19:
 186:main.c        ****         
 405              		.loc 1 186 0
 406 0134 2046     		mov	r0, r4
 407 0136 FFF7FEFF 		bl	fw2_PWM_WriteCompare1
 408              	.LVL51:
 188:main.c        ****         
 409              		.loc 1 188 0
 410 013a 0A3C     		subs	r4, r4, #10
 411              	.LVL52:
 412 013c A4B2     		uxth	r4, r4
 413              	.LVL53:
 190:main.c        ****         {
 414              		.loc 1 190 0
 415 013e 064B     		ldr	r3, .L22
 416 0140 9888     		ldrh	r0, [r3, #4]
 417 0142 A0F14603 		sub	r3, r0, #70
 418 0146 9C42     		cmp	r4, r3
 419 0148 F4D1     		bne	.L19
 192:main.c        ****             fw2_PWM_WriteCompare2 (SERVO_N90);
 420              		.loc 1 192 0
 421 014a FFF7FEFF 		bl	fw2_PWM_WriteCompare1
 422              	.LVL54:
 193:main.c        ****         }
 423              		.loc 1 193 0
 424 014e 024B     		ldr	r3, .L22
 425 0150 D888     		ldrh	r0, [r3, #6]
 426 0152 FFF7FEFF 		bl	fw2_PWM_WriteCompare2
 427              	.LVL55:
 428 0156 EDE7     		b	.L19
ARM GAS  C:\Users\Laptop\AppData\Local\Temp\ccZEGHIY.s 			page 14


 429              	.L23:
 430              		.align	2
 431              	.L22:
 432 0158 00000000 		.word	.LANCHOR0
 433 015c 00000000 		.word	gx
 434 0160 00000000 		.word	dx
 435 0164 00000000 		.word	gy
 436 0168 00000000 		.word	dy
 437 016c 00000000 		.word	gz
 438 0170 00000000 		.word	dz
 439 0174 00000000 		.word	blueRX_ISR
 440 0178 00000000 		.word	accelUP_ISR
 441 017c 00000000 		.word	motion_handler
 442 0180 00E100E0 		.word	-536813312
 443 0184 00000000 		.word	.LANCHOR1
 444              		.cfi_endproc
 445              	.LFE63:
 446              		.size	main, .-main
 447              		.section	.text.rpm_handler,"ax",%progbits
 448              		.align	2
 449              		.global	rpm_handler
 450              		.thumb
 451              		.thumb_func
 452              		.type	rpm_handler, %function
 453              	rpm_handler:
 454              	.LFB67:
 260:main.c        ****     } else
 261:main.c        ****     {
 262:main.c        ****         /* Raise an error. */
 263:main.c        ****     }
 264:main.c        **** }
 265:main.c        **** 
 266:main.c        **** CY_ISR (rpm_handler)
 267:main.c        **** {
 455              		.loc 1 267 0
 456              		.cfi_startproc
 457              		@ args = 0, pretend = 0, frame = 0
 458              		@ frame_needed = 0, uses_anonymous_args = 0
 459 0000 08B5     		push	{r3, lr}
 460              		.cfi_def_cfa_offset 8
 461              		.cfi_offset 3, -8
 462              		.cfi_offset 14, -4
 268:main.c        ****     /* Handle increment cases. */
 269:main.c        ****     if (fw1_RPM_ISR_GetState())
 463              		.loc 1 269 0
 464 0002 FFF7FEFF 		bl	fw1_RPM_ISR_GetState
 465              	.LVL56:
 466 0006 40B1     		cbz	r0, .L25
 270:main.c        ****     {
 271:main.c        ****         /* Update fw1 RPM. */
 272:main.c        ****         rpmx++;
 467              		.loc 1 272 0
 468 0008 104A     		ldr	r2, .L29
 469 000a 1388     		ldrh	r3, [r2]
 470 000c 0133     		adds	r3, r3, #1
 471 000e 1380     		strh	r3, [r2]	@ movhi
 273:main.c        ****         
ARM GAS  C:\Users\Laptop\AppData\Local\Temp\ccZEGHIY.s 			page 15


 274:main.c        ****         /* Clear fw1 interrupt. */
 275:main.c        ****         fw1_RPM_ISRPin_ClearInterrupt ();
 472              		.loc 1 275 0
 473 0010 FFF7FEFF 		bl	fw1_RPM_ISRPin_ClearInterrupt
 474              	.LVL57:
 276:main.c        ****         fw1_RPM_ISR_ClearPending ();
 475              		.loc 1 276 0
 476 0014 FFF7FEFF 		bl	fw1_RPM_ISR_ClearPending
 477              	.LVL58:
 478 0018 08BD     		pop	{r3, pc}
 479              	.L25:
 277:main.c        ****     } else if (fw2_RPM_ISR_GetState ())
 480              		.loc 1 277 0
 481 001a FFF7FEFF 		bl	fw2_RPM_ISR_GetState
 482              	.LVL59:
 483 001e 40B1     		cbz	r0, .L27
 278:main.c        ****     {
 279:main.c        ****         /* Update fw2 RPM. */
 280:main.c        ****         rpmy++;
 484              		.loc 1 280 0
 485 0020 0B4A     		ldr	r2, .L29+4
 486 0022 1388     		ldrh	r3, [r2]
 487 0024 0133     		adds	r3, r3, #1
 488 0026 1380     		strh	r3, [r2]	@ movhi
 281:main.c        ****         
 282:main.c        ****         /* Clear fw2 interrupt. */
 283:main.c        ****         fw2_RPM_ISRPin_ClearInterrupt ();
 489              		.loc 1 283 0
 490 0028 FFF7FEFF 		bl	fw2_RPM_ISRPin_ClearInterrupt
 491              	.LVL60:
 284:main.c        ****         fw2_RPM_ISR_ClearPending ();
 492              		.loc 1 284 0
 493 002c FFF7FEFF 		bl	fw2_RPM_ISR_ClearPending
 494              	.LVL61:
 495 0030 08BD     		pop	{r3, pc}
 496              	.L27:
 285:main.c        ****     }else if (fw3_RPM_ISR_GetState ())
 497              		.loc 1 285 0
 498 0032 FFF7FEFF 		bl	fw3_RPM_ISR_GetState
 499              	.LVL62:
 500 0036 38B1     		cbz	r0, .L24
 286:main.c        ****     {
 287:main.c        ****         /* Update fw3 RPM. */
 288:main.c        ****         rpmz++;
 501              		.loc 1 288 0
 502 0038 064A     		ldr	r2, .L29+8
 503 003a 1388     		ldrh	r3, [r2]
 504 003c 0133     		adds	r3, r3, #1
 505 003e 1380     		strh	r3, [r2]	@ movhi
 289:main.c        ****         
 290:main.c        ****         /* Clear fw3 interrupt. */
 291:main.c        ****         fw3_RPM_ISRPin_ClearInterrupt ();
 506              		.loc 1 291 0
 507 0040 FFF7FEFF 		bl	fw3_RPM_ISRPin_ClearInterrupt
 508              	.LVL63:
 292:main.c        ****         fw3_RPM_ISR_ClearPending ();
 509              		.loc 1 292 0
ARM GAS  C:\Users\Laptop\AppData\Local\Temp\ccZEGHIY.s 			page 16


 510 0044 FFF7FEFF 		bl	fw3_RPM_ISR_ClearPending
 511              	.LVL64:
 512              	.L24:
 513 0048 08BD     		pop	{r3, pc}
 514              	.L30:
 515 004a 00BF     		.align	2
 516              	.L29:
 517 004c 00000000 		.word	rpmx
 518 0050 00000000 		.word	rpmy
 519 0054 00000000 		.word	rpmz
 520              		.cfi_endproc
 521              	.LFE67:
 522              		.size	rpm_handler, .-rpm_handler
 523              		.global	updateBlue_STR
 524              		.global	updateBuff_len
 525              		.global	baud
 526              		.global	blueBuff_len
 527              		.global	blueBuff_timeout
 528              		.comm	rpmz,2,2
 529              		.comm	rpmy,2,2
 530              		.comm	rpmx,2,2
 531              		.comm	jz,1,1
 532              		.comm	jy,1,1
 533              		.comm	jx,1,1
 534              		.global	SERVO_P90
 535              		.global	SERVO_ZERO
 536              		.global	SERVO_N90
 537              		.comm	s_pwmz,2,2
 538              		.comm	s_pwmy,2,2
 539              		.comm	s_pwmx,2,2
 540              		.global	MOTOR_FULL_FORWARD
 541              		.global	MOTOR_STOP
 542              		.global	MOTOR_FULL_REVERSE
 543              		.comm	m_pwmz,2,2
 544              		.comm	m_pwmy,2,2
 545              		.comm	m_pwmx,2,2
 546              		.global	PWM_ZERO
 547              		.global	PWM_PERIOD
 548              		.comm	dz,2,2
 549              		.comm	dy,2,2
 550              		.comm	dx,2,2
 551              		.comm	gz,2,2
 552              		.comm	gy,2,2
 553              		.comm	gx,2,2
 554              		.comm	az,2,2
 555              		.comm	ay,2,2
 556              		.comm	ax,2,2
 557              		.global	errorStatus
 558              		.comm	buffer,22,4
 559              		.comm	devAddr,1,1
 560              		.section	.rodata
 561              		.align	2
 562              		.type	updateBuff_len, %object
 563              		.size	updateBuff_len, 4
 564              	updateBuff_len:
 565 0000 12000000 		.word	18
 566              		.type	blueBuff_len, %object
ARM GAS  C:\Users\Laptop\AppData\Local\Temp\ccZEGHIY.s 			page 17


 567              		.size	blueBuff_len, 4
 568              	blueBuff_len:
 569 0004 40000000 		.word	64
 570              		.data
 571              		.align	2
 572              		.set	.LANCHOR0,. + 0
 573              		.type	blueBuff_timeout, %object
 574              		.size	blueBuff_timeout, 1
 575              	blueBuff_timeout:
 576 0000 32       		.byte	50
 577              		.type	baud, %object
 578              		.size	baud, 1
 579              	baud:
 580 0001 02       		.byte	2
 581              		.type	PWM_PERIOD, %object
 582              		.size	PWM_PERIOD, 2
 583              	PWM_PERIOD:
 584 0002 C012     		.short	4800
 585              		.type	MOTOR_STOP, %object
 586              		.size	MOTOR_STOP, 2
 587              	MOTOR_STOP:
 588 0004 2201     		.short	290
 589              		.type	SERVO_N90, %object
 590              		.size	SERVO_N90, 2
 591              	SERVO_N90:
 592 0006 1E0F     		.short	3870
 593              		.type	SERVO_ZERO, %object
 594              		.size	SERVO_ZERO, 2
 595              	SERVO_ZERO:
 596 0008 E010     		.short	4320
 597 000a 0000     		.space	2
 598              		.type	updateBlue_STR, %object
 599              		.size	updateBlue_STR, 4
 600              	updateBlue_STR:
 601 000c 00000000 		.word	.LC0
 602              		.type	SERVO_P90, %object
 603              		.size	SERVO_P90, 2
 604              	SERVO_P90:
 605 0010 A212     		.short	4770
 606              		.type	MOTOR_FULL_FORWARD, %object
 607              		.size	MOTOR_FULL_FORWARD, 2
 608              	MOTOR_FULL_FORWARD:
 609 0012 9F01     		.short	415
 610              		.type	MOTOR_FULL_REVERSE, %object
 611              		.size	MOTOR_FULL_REVERSE, 2
 612              	MOTOR_FULL_REVERSE:
 613 0014 7D00     		.short	125
 614 0016 0000     		.section	.rodata.str1.4,"aMS",%progbits,1
 615              		.align	2
 616              	.LC0:
 617 0000 25642025 		.ascii	"%d %d %d %d %d %d %d %d %d\000"
 617      64202564 
 617      20256420 
 617      25642025 
 617      64202564 
 618 001b 00       		.bss
 619              		.align	1
ARM GAS  C:\Users\Laptop\AppData\Local\Temp\ccZEGHIY.s 			page 18


 620              		.set	.LANCHOR1,. + 0
 621              		.type	PWM_ZERO, %object
 622              		.size	PWM_ZERO, 2
 623              	PWM_ZERO:
 624 0000 0000     		.space	2
 625              		.type	errorStatus, %object
 626              		.size	errorStatus, 1
 627              	errorStatus:
 628 0002 00       		.space	1
 629 0003 00       		.text
 630              	.Letext0:
 631              		.file 2 "c:\\program files (x86)\\cypress\\psoc creator\\4.0\\psoc creator\\import\\gnu\\arm\\4.9.
 632              		.file 3 "c:\\program files (x86)\\cypress\\psoc creator\\4.0\\psoc creator\\import\\gnu\\arm\\4.9.
 633              		.file 4 "Generated_Source\\PSoC5/cytypes.h"
 634              		.file 5 "c:\\program files (x86)\\cypress\\psoc creator\\4.0\\psoc creator\\import\\gnu\\arm\\4.9.
 635              		.file 6 "Generated_Source\\PSoC5/core_cm3.h"
 636              		.file 7 "MPU6050.h"
 637              		.file 8 "Generated_Source\\PSoC5/blueRX_ISR.h"
 638              		.file 9 "Generated_Source\\PSoC5/accelUP_ISR.h"
 639              		.file 10 "blue.h"
 640              		.file 11 "Generated_Source\\PSoC5/CyLib.h"
 641              		.file 12 "Generated_Source\\PSoC5/I2CM.h"
 642              		.file 13 "Generated_Source\\PSoC5/UART.h"
 643              		.file 14 "Generated_Source\\PSoC5/flywheel_clock.h"
 644              		.file 15 "Generated_Source\\PSoC5/fw1_PWM.h"
 645              		.file 16 "Generated_Source\\PSoC5/fw2_PWM.h"
 646              		.file 17 "Generated_Source\\PSoC5/fw3_PWM.h"
 647              		.file 18 "Generated_Source\\PSoC5/fw1_RPM_ISR.h"
 648              		.file 19 "Generated_Source\\PSoC5/fw1_RPM_ISRPin.h"
 649              		.file 20 "Generated_Source\\PSoC5/fw2_RPM_ISR.h"
 650              		.file 21 "Generated_Source\\PSoC5/fw2_RPM_ISRPin.h"
 651              		.file 22 "Generated_Source\\PSoC5/fw3_RPM_ISR.h"
 652              		.file 23 "Generated_Source\\PSoC5/fw3_RPM_ISRPin.h"